; Function Attrs: mustprogress nounwind uwtable
define void @_ZN8facebook5velox10expression9calculate6Parser17stack_symbol_typeC2EaONS3_11symbol_typeE(ptr noundef nonnull align 16 dereferenceable(48) %this, i8 noundef signext %s, ptr noundef nonnull align 16 dereferenceable(48) %that) unnamed_addr #3 align 2 personality ptr @__gxx_personality_v0 {
entry:
  store i8 %s, ptr %this, align 16
  %value.i = getelementptr inbounds i8, ptr %this, i64 16
  tail call void @llvm.memset.p0.i64(ptr noundef nonnull align 16 dereferenceable(32) %value.i, i8 0, i64 32, i1 false)
  %0 = load i32, ptr %that, align 16
  switch i32 %0, label %sw.epilog [
    i32 10, label %sw.bb
    i32 27, label %sw.bb
    i32 11, label %sw.bb3
  ]

sw.bb:                                            ; preds = %entry, %entry
  %value2 = getelementptr inbounds i8, ptr %that, i64 16
  %1 = load i64, ptr %value2, align 16
  store i64 %1, ptr %value.i, align 16
  br label %sw.epilog

sw.bb3:                                           ; preds = %entry
  %value5 = getelementptr inbounds i8, ptr %that, i64 16
  tail call void @_ZNSt7__cxx1112basic_stringIcSt11char_traitsIcESaIcEEC1EOS4_(ptr noundef nonnull align 8 dereferenceable(32) %value.i, ptr noundef nonnull align 8 dereferenceable(32) %value5) #25
  tail call void @_ZNSt7__cxx1112basic_stringIcSt11char_traitsIcESaIcEED1Ev(ptr noundef nonnull align 8 dereferenceable(32) %value5) #25
  br label %sw.epilog

sw.epilog:                                        ; preds = %sw.bb3, %sw.bb, %entry
  store i32 -2, ptr %that, align 16
  ret void
}